target datalayout = "e-m:e-p270:32:32-p271:32:32-p272:64:64-i64:64-i128:128-f80:128-n8:16:32:64-S128"
target triple = "x86_64-pc-linux-gnu"

@_ZTV22MLRenderingSideToolbar = external unnamed_addr constant { [56 x ptr], [10 x ptr] }, align 8

; Function Attrs: mustprogress uwtable
define void @_ZN22MLRenderingSideToolbarC2EiP7QWidget(ptr noundef nonnull align 8 dereferenceable(96) %0, i32 noundef %1, ptr noundef %2) unnamed_addr #5 align 2 personality ptr @__gxx_personality_v0 {
  %4 = alloca ptr, align 8
  %5 = alloca i32, align 4
  %6 = alloca ptr, align 8
  %7 = alloca ptr, align 8
  %8 = alloca i32, align 4
  store ptr %0, ptr %4, align 8
  store i32 %1, ptr %5, align 4
  store ptr %2, ptr %6, align 8
  %9 = load ptr, ptr %4, align 8
  %10 = load i32, ptr %5, align 4
  %11 = load ptr, ptr %6, align 8
  call void @_ZN18MLRenderingToolbarC2EiP7QWidget(ptr noundef nonnull align 8 dereferenceable(96) %9, i32 noundef %10, ptr noundef %11)
  store ptr getelementptr inbounds ({ [56 x ptr], [10 x ptr] }, ptr @_ZTV22MLRenderingSideToolbar, i32 0, i32 0, i32 2), ptr %9, align 8
  %12 = getelementptr inbounds i8, ptr %9, i64 16
  store ptr getelementptr inbounds ({ [56 x ptr], [10 x ptr] }, ptr @_ZTV22MLRenderingSideToolbar, i32 0, i32 1, i32 2), ptr %12, align 8
  invoke void @_ZN22MLRenderingSideToolbar7initGuiEv(ptr noundef nonnull align 8 dereferenceable(96) %9)
          to label %13 unwind label %14

13:                                               ; preds = %3
  ret void

14:                                               ; preds = %3
  %15 = landingpad { ptr, i32 }
          cleanup
  %16 = extractvalue { ptr, i32 } %15, 0
  store ptr %16, ptr %7, align 8
  %17 = extractvalue { ptr, i32 } %15, 1
  store i32 %17, ptr %8, align 4
  call void @_ZN18MLRenderingToolbarD2Ev(ptr noundef nonnull align 8 dereferenceable(96) %9) #3
  br label %18

18:                                               ; preds = %14
  %19 = load ptr, ptr %7, align 8
  %20 = load i32, ptr %8, align 4
  %21 = insertvalue { ptr, i32 } poison, ptr %19, 0
  %22 = insertvalue { ptr, i32 } %21, i32 %20, 1
  resume { ptr, i32 } %22
}