; Function Attrs: mustprogress uwtable
define void @_ZN22MLRenderingSideToolbarC2EiP7QWidget(ptr noundef nonnull align 8 dereferenceable(96) %0, i32 noundef %1, ptr noundef %2) unnamed_addr #3 align 2 personality ptr @__gxx_personality_v0 {
  tail call void @_ZN18MLRenderingToolbarC2EiP7QWidget(ptr noundef nonnull align 8 dereferenceable(96) %0, i32 noundef %1, ptr noundef %2)
  store ptr getelementptr inbounds ({ [56 x ptr], [10 x ptr] }, ptr @_ZTV22MLRenderingSideToolbar, i64 0, i32 0, i64 2), ptr %0, align 8
  %4 = getelementptr inbounds i8, ptr %0, i64 16
  store ptr getelementptr inbounds ({ [56 x ptr], [10 x ptr] }, ptr @_ZTV22MLRenderingSideToolbar, i64 0, i32 1, i64 2), ptr %4, align 8
  invoke void @_ZN22MLRenderingSideToolbar7initGuiEv(ptr noundef nonnull align 8 dereferenceable(96) %0)
          to label %5 unwind label %6

5:                                                ; preds = %3
  ret void

6:                                                ; preds = %3
  %7 = landingpad { ptr, i32 }
          cleanup
  tail call void @_ZN18MLRenderingToolbarD2Ev(ptr noundef nonnull align 8 dereferenceable(96) %0) #23
  resume { ptr, i32 } %7
}